(dp0
S'VFO'
p1
I146000000
sS'levelSquelch'
p2
I500
sS'txAudioClipFm'
p3
I0
sS'txAudioPreemphAm'
p4
I0
sS'txAudioPreemphUsb'
p5
I70
sS'levelSquelchSSB'
p6
I200
sS'bandState'
p7
(dp8
S'23cm'
p9
(I1270000000
I10000
S'USB'
p10
tp11
sS'60'
p12
(I5370000
I1500
g10
tp13
sS'80'
p14
(I3660000
I-10000
S'LSB'
p15
tp16
sS'20'
p17
(I14180000
I10000
g10
tp18
sS'40'
p19
(I7180000
I-5000
g15
tp20
sS'2'
p21
(I146540000
I-114461
VUSB
p22
tp23
sS'4'
p24
(I70250000
I10000
g10
tp25
sS'6'
p26
(I52000000
I10000
g10
tp27
sS'33cm'
p28
(I915000000
I10000
g10
tp29
sS'3cm'
p30
(I10250000000
I10000
g10
tp31
sS'WWV'
p32
(I20000000
I334523
S'AM'
p33
tp34
sS'Time'
p35
(I5000000
I0
S'AM'
p36
tp37
sS'5cm'
p38
(I5787500000
I10000
g10
tp39
sS'Audio'
p40
(I0
I0
g15
tp41
sS'160'
p42
(I1890000
I-10000
g15
tp43
sS'13cm'
p44
(I2375000000
I10000
g10
tp45
sS'10'
p46
(I28850000
I10000
g10
tp47
sS'12'
p48
(I24940000
I10000
g10
tp49
sS'15'
p50
(I21230000
I10000
g10
tp51
sS'17'
p52
(I18120000
I10000
g10
tp53
sS'30'
p54
(I10120000
I-10000
S'CWL'
p55
tp56
sS'9cm'
p57
(I3400000000
I10000
g10
tp58
sS'70cm'
p59
(I435000000
I-167000
g10
tp60
sS'1.25'
p61
(I223500000
I10000
g10
tp62
ssS'levelOffAGC'
p63
I100
sS'graphScaleZ'
p64
(dp65
V2
p66
(I88
I89
tp67
sV33cm
p68
(I100
I92
tp69
ssS'txAudioPreemphFdv'
p70
I0
sS'split_rxtx_play'
p71
I2
sS'volumeAudio'
p72
I577
sS'txAudioClipFdv'
p73
I0
sS'filterAdjBw1'
p74
I1000
sS'txAudioPreemphFm'
p75
I0
sS'txAudioClipAm'
p76
I0
sS'levelVOX'
p77
I-20
sS'sidetone_volume'
p78
I0
sS'wfallScaleZ'
p79
(dp80
sS'bandAmplPhase'
p81
(dp82
sS'levelSpot'
p83
I500
sS'levelAGC'
p84
I500
sS'txAudioClipUsb'
p85
I5
sS'lastBand'
p86
g21
sS'txFreq'
p87
I0
sS'mode'
p88
g22
sS'timeVOX'
p89
I500
sS'vardecim_set'
p90
I1152000
s.